target datalayout = "e-m:e-p270:32:32-p271:32:32-p272:64:64-i64:64-i128:128-f80:128-n8:16:32:64-S128"
target triple = "x86_64-pc-linux-gnu"

%struct.LZ4HC_CCtx_internal = type { [32768 x i32], [65536 x i16], ptr, ptr, ptr, i32, i32, i32, i16, i8, i8, ptr }

; Function Attrs: nounwind uwtable
define dso_local i32 @LZ4_saveDictHC(ptr noundef %0, ptr noundef %1, i32 noundef %2) #0 {
  %4 = alloca ptr, align 8
  %5 = alloca ptr, align 8
  %6 = alloca i32, align 4
  %7 = alloca ptr, align 8
  %8 = alloca i32, align 4
  %9 = alloca i32, align 4
  store ptr %0, ptr %4, align 8, !tbaa !34
  store ptr %1, ptr %5, align 8, !tbaa !4
  store i32 %2, ptr %6, align 4, !tbaa !9
  call void @llvm.lifetime.start.p0(i64 8, ptr %7) #11
  %10 = load ptr, ptr %4, align 8, !tbaa !34
  store ptr %10, ptr %7, align 8, !tbaa !11
  call void @llvm.lifetime.start.p0(i64 4, ptr %8) #11
  %11 = load ptr, ptr %7, align 8, !tbaa !11
  %12 = getelementptr inbounds nuw %struct.LZ4HC_CCtx_internal, ptr %11, i32 0, i32 2
  %13 = load ptr, ptr %12, align 8, !tbaa !13
  %14 = load ptr, ptr %7, align 8, !tbaa !11
  %15 = getelementptr inbounds nuw %struct.LZ4HC_CCtx_internal, ptr %14, i32 0, i32 3
  %16 = load ptr, ptr %15, align 8, !tbaa !16
  %17 = ptrtoint ptr %13 to i64
  %18 = ptrtoint ptr %16 to i64
  %19 = sub i64 %17, %18
  %20 = trunc i64 %19 to i32
  store i32 %20, ptr %8, align 4, !tbaa !9
  %21 = load i32, ptr %6, align 4, !tbaa !9
  %22 = icmp sgt i32 %21, 65536
  br i1 %22, label %23, label %24

23:                                               ; preds = %3
  store i32 65536, ptr %6, align 4, !tbaa !9
  br label %24

24:                                               ; preds = %23, %3
  %25 = load i32, ptr %6, align 4, !tbaa !9
  %26 = icmp slt i32 %25, 4
  br i1 %26, label %27, label %28

27:                                               ; preds = %24
  store i32 0, ptr %6, align 4, !tbaa !9
  br label %28

28:                                               ; preds = %27, %24
  %29 = load i32, ptr %6, align 4, !tbaa !9
  %30 = load i32, ptr %8, align 4, !tbaa !9
  %31 = icmp sgt i32 %29, %30
  br i1 %31, label %32, label %34

32:                                               ; preds = %28
  %33 = load i32, ptr %8, align 4, !tbaa !9
  store i32 %33, ptr %6, align 4, !tbaa !9
  br label %34

34:                                               ; preds = %32, %28
  %35 = load ptr, ptr %5, align 8, !tbaa !4
  %36 = icmp eq ptr %35, null
  br i1 %36, label %37, label %38

37:                                               ; preds = %34
  br label %38

38:                                               ; preds = %37, %34
  %39 = load i32, ptr %6, align 4, !tbaa !9
  %40 = icmp sgt i32 %39, 0
  br i1 %40, label %41, label %52

41:                                               ; preds = %38
  %42 = load ptr, ptr %5, align 8, !tbaa !4
  %43 = load ptr, ptr %7, align 8, !tbaa !11
  %44 = getelementptr inbounds nuw %struct.LZ4HC_CCtx_internal, ptr %43, i32 0, i32 2
  %45 = load ptr, ptr %44, align 8, !tbaa !13
  %46 = load i32, ptr %6, align 4, !tbaa !9
  %47 = sext i32 %46 to i64
  %48 = sub i64 0, %47
  %49 = getelementptr inbounds i8, ptr %45, i64 %48
  %50 = load i32, ptr %6, align 4, !tbaa !9
  %51 = sext i32 %50 to i64
  call void @llvm.memmove.p0.p0.i64(ptr align 1 %42, ptr align 1 %49, i64 %51, i1 false)
  br label %52

52:                                               ; preds = %41, %38
  call void @llvm.lifetime.start.p0(i64 4, ptr %9) #11
  %53 = load ptr, ptr %7, align 8, !tbaa !11
  %54 = getelementptr inbounds nuw %struct.LZ4HC_CCtx_internal, ptr %53, i32 0, i32 2
  %55 = load ptr, ptr %54, align 8, !tbaa !13
  %56 = load ptr, ptr %7, align 8, !tbaa !11
  %57 = getelementptr inbounds nuw %struct.LZ4HC_CCtx_internal, ptr %56, i32 0, i32 3
  %58 = load ptr, ptr %57, align 8, !tbaa !16
  %59 = ptrtoint ptr %55 to i64
  %60 = ptrtoint ptr %58 to i64
  %61 = sub i64 %59, %60
  %62 = trunc i64 %61 to i32
  %63 = load ptr, ptr %7, align 8, !tbaa !11
  %64 = getelementptr inbounds nuw %struct.LZ4HC_CCtx_internal, ptr %63, i32 0, i32 5
  %65 = load i32, ptr %64, align 8, !tbaa !17
  %66 = add i32 %62, %65
  store i32 %66, ptr %9, align 4, !tbaa !9
  %67 = load ptr, ptr %5, align 8, !tbaa !4
  %68 = icmp eq ptr %67, null
  br i1 %68, label %69, label %70

69:                                               ; preds = %52
  br label %75

70:                                               ; preds = %52
  %71 = load ptr, ptr %5, align 8, !tbaa !4
  %72 = load i32, ptr %6, align 4, !tbaa !9
  %73 = sext i32 %72 to i64
  %74 = getelementptr inbounds i8, ptr %71, i64 %73
  br label %75

75:                                               ; preds = %70, %69
  %76 = phi ptr [ null, %69 ], [ %74, %70 ]
  %77 = load ptr, ptr %7, align 8, !tbaa !11
  %78 = getelementptr inbounds nuw %struct.LZ4HC_CCtx_internal, ptr %77, i32 0, i32 2
  store ptr %76, ptr %78, align 8, !tbaa !13
  %79 = load ptr, ptr %5, align 8, !tbaa !4
  %80 = load ptr, ptr %7, align 8, !tbaa !11
  %81 = getelementptr inbounds nuw %struct.LZ4HC_CCtx_internal, ptr %80, i32 0, i32 3
  store ptr %79, ptr %81, align 8, !tbaa !16
  %82 = load i32, ptr %9, align 4, !tbaa !9
  %83 = load i32, ptr %6, align 4, !tbaa !9
  %84 = sub i32 %82, %83
  %85 = load ptr, ptr %7, align 8, !tbaa !11
  %86 = getelementptr inbounds nuw %struct.LZ4HC_CCtx_internal, ptr %85, i32 0, i32 5
  store i32 %84, ptr %86, align 8, !tbaa !17
  %87 = load i32, ptr %9, align 4, !tbaa !9
  %88 = load i32, ptr %6, align 4, !tbaa !9
  %89 = sub i32 %87, %88
  %90 = load ptr, ptr %7, align 8, !tbaa !11
  %91 = getelementptr inbounds nuw %struct.LZ4HC_CCtx_internal, ptr %90, i32 0, i32 6
  store i32 %89, ptr %91, align 4, !tbaa !40
  %92 = load ptr, ptr %7, align 8, !tbaa !11
  %93 = getelementptr inbounds nuw %struct.LZ4HC_CCtx_internal, ptr %92, i32 0, i32 3
  %94 = load ptr, ptr %93, align 8, !tbaa !16
  %95 = load ptr, ptr %7, align 8, !tbaa !11
  %96 = getelementptr inbounds nuw %struct.LZ4HC_CCtx_internal, ptr %95, i32 0, i32 4
  store ptr %94, ptr %96, align 8, !tbaa !39
  %97 = load ptr, ptr %7, align 8, !tbaa !11
  %98 = getelementptr inbounds nuw %struct.LZ4HC_CCtx_internal, ptr %97, i32 0, i32 7
  %99 = load i32, ptr %98, align 8, !tbaa !38
  %100 = load ptr, ptr %7, align 8, !tbaa !11
  %101 = getelementptr inbounds nuw %struct.LZ4HC_CCtx_internal, ptr %100, i32 0, i32 5
  %102 = load i32, ptr %101, align 8, !tbaa !17
  %103 = icmp ult i32 %99, %102
  br i1 %103, label %104, label %110

104:                                              ; preds = %75
  %105 = load ptr, ptr %7, align 8, !tbaa !11
  %106 = getelementptr inbounds nuw %struct.LZ4HC_CCtx_internal, ptr %105, i32 0, i32 5
  %107 = load i32, ptr %106, align 8, !tbaa !17
  %108 = load ptr, ptr %7, align 8, !tbaa !11
  %109 = getelementptr inbounds nuw %struct.LZ4HC_CCtx_internal, ptr %108, i32 0, i32 7
  store i32 %107, ptr %109, align 8, !tbaa !38
  br label %110

110:                                              ; preds = %104, %75
  call void @llvm.lifetime.end.p0(i64 4, ptr %9) #11
  %111 = load i32, ptr %6, align 4, !tbaa !9
  call void @llvm.lifetime.end.p0(i64 4, ptr %8) #11
  call void @llvm.lifetime.end.p0(i64 8, ptr %7) #11
  ret i32 %111
}