; Function Attrs: mustprogress nofree norecurse nosync nounwind willreturn memory(readwrite, inaccessiblemem: none) uwtable
define dso_local range(i32 -2147483648, 65537) i32 @LZ4_saveDictHC(ptr noundef captures(none) initializes((262160, 262168), (262172, 262176)) %0, ptr noundef %1, i32 noundef %2) local_unnamed_addr #15 {
  %4 = getelementptr inbounds nuw i8, ptr %0, i64 262144
  %5 = load ptr, ptr %4, align 8, !tbaa !4
  %6 = getelementptr inbounds nuw i8, ptr %0, i64 262152
  %7 = load ptr, ptr %6, align 8, !tbaa !13
  %8 = ptrtoint ptr %5 to i64
  %9 = ptrtoint ptr %7 to i64
  %10 = sub i64 %8, %9
  %11 = trunc i64 %10 to i32
  %12 = tail call i32 @llvm.umin.i32(i32 %2, i32 65536)
  %13 = icmp slt i32 %2, 4
  %spec.store.select1 = select i1 %13, i32 0, i32 %12
  %spec.select = tail call i32 @llvm.smin.i32(i32 %spec.store.select1, i32 %11)
  %14 = icmp sgt i32 %spec.select, 0
  br i1 %14, label %15, label %19

15:                                               ; preds = %3
  %16 = zext nneg i32 %spec.select to i64
  %17 = sub nsw i64 0, %16
  %18 = getelementptr inbounds i8, ptr %5, i64 %17
  tail call void @llvm.memmove.p0.p0.i64(ptr align 1 %1, ptr nonnull align 1 %18, i64 %16, i1 false)
  %.pre = load ptr, ptr %4, align 8, !tbaa !4
  %.pre38 = load ptr, ptr %6, align 8, !tbaa !13
  %.pre39 = ptrtoint ptr %.pre to i64
  %.pre40 = ptrtoint ptr %.pre38 to i64
  %.pre42 = sub i64 %.pre39, %.pre40
  %.pre44 = trunc i64 %.pre42 to i32
  br label %19

19:                                               ; preds = %15, %3
  %.pre-phi45 = phi i32 [ %.pre44, %15 ], [ %11, %3 ]
  %20 = getelementptr inbounds nuw i8, ptr %0, i64 262168
  %21 = load i32, ptr %20, align 8, !tbaa !14
  %22 = icmp eq ptr %1, null
  %23 = sext i32 %spec.select to i64
  %24 = getelementptr inbounds i8, ptr %1, i64 %23
  %25 = select i1 %22, ptr null, ptr %24
  store ptr %25, ptr %4, align 8, !tbaa !4
  store ptr %1, ptr %6, align 8, !tbaa !13
  %26 = sub i32 %21, %spec.select
  %27 = add i32 %26, %.pre-phi45
  store i32 %27, ptr %20, align 8, !tbaa !14
  %28 = getelementptr inbounds nuw i8, ptr %0, i64 262172
  store i32 %27, ptr %28, align 4, !tbaa !35
  %29 = getelementptr inbounds nuw i8, ptr %0, i64 262160
  store ptr %1, ptr %29, align 8, !tbaa !34
  %30 = getelementptr inbounds nuw i8, ptr %0, i64 262176
  %31 = load i32, ptr %30, align 8, !tbaa !33
  %32 = icmp ult i32 %31, %27
  br i1 %32, label %33, label %34

33:                                               ; preds = %19
  store i32 %27, ptr %30, align 8, !tbaa !33
  br label %34

34:                                               ; preds = %33, %19
  ret i32 %spec.select
}